; ModuleID = '4/282.c'
source_filename = "4/282.c"
target datalayout = "e-m:e-p270:32:32-p271:32:32-p272:64:64-i64:64-f80:128-n8:16:32:64-S128"
target triple = "x86_64-pc-linux-gnu"

@.str = private unnamed_addr constant [5 x i8] c"%d%d\00", align 1
@.str.1 = private unnamed_addr constant [3 x i8] c"%d\00", align 1
@.str.2 = private unnamed_addr constant [4 x i8] c"%d\0A\00", align 1

; Function Attrs: noinline nounwind uwtable
define dso_local i32 @main() #0 {
  %1 = alloca i32, align 4
  %2 = alloca i32, align 4
  %3 = alloca i32, align 4
  %4 = alloca [100 x [100 x i32]], align 16
  %5 = alloca i32, align 4
  %6 = alloca i32, align 4
  %7 = alloca i32, align 4
  %8 = alloca i32, align 4
  %9 = alloca i32, align 4
  %10 = alloca i32, align 4
  %11 = alloca i32, align 4
  %12 = alloca i32, align 4
  %13 = alloca i32, align 4
  %14 = alloca i32, align 4
  store i32 0, i32* %1, align 4
  %15 = call i32 (i8*, ...) @__isoc99_scanf(i8* getelementptr inbounds ([5 x i8], [5 x i8]* @.str, i64 0, i64 0), i32* %2, i32* %3)
  store i32 1, i32* %5, align 4
  br label %16

16:                                               ; preds = %37, %0
  %17 = load i32, i32* %5, align 4
  %18 = load i32, i32* %2, align 4
  %19 = icmp sle i32 %17, %18
  br i1 %19, label %20, label %40

20:                                               ; preds = %16
  store i32 1, i32* %6, align 4
  br label %21

21:                                               ; preds = %33, %20
  %22 = load i32, i32* %6, align 4
  %23 = load i32, i32* %3, align 4
  %24 = icmp sle i32 %22, %23
  br i1 %24, label %25, label %36

25:                                               ; preds = %21
  %26 = load i32, i32* %5, align 4
  %27 = sext i32 %26 to i64
  %28 = getelementptr inbounds [100 x [100 x i32]], [100 x [100 x i32]]* %4, i64 0, i64 %27
  %29 = load i32, i32* %6, align 4
  %30 = sext i32 %29 to i64
  %31 = getelementptr inbounds [100 x i32], [100 x i32]* %28, i64 0, i64 %30
  %32 = call i32 (i8*, ...) @__isoc99_scanf(i8* getelementptr inbounds ([3 x i8], [3 x i8]* @.str.1, i64 0, i64 0), i32* %31)
  br label %33

33:                                               ; preds = %25
  %34 = load i32, i32* %6, align 4
  %35 = add nsw i32 %34, 1
  store i32 %35, i32* %6, align 4
  br label %21

36:                                               ; preds = %21
  br label %37

37:                                               ; preds = %36
  %38 = load i32, i32* %5, align 4
  %39 = add nsw i32 %38, 1
  store i32 %39, i32* %5, align 4
  br label %16

40:                                               ; preds = %16
  %41 = load i32, i32* %2, align 4
  %42 = load i32, i32* %3, align 4
  %43 = icmp sge i32 %41, %42
  br i1 %43, label %44, label %115

44:                                               ; preds = %40
  store i32 1, i32* %7, align 4
  br label %45

45:                                               ; preds = %70, %44
  %46 = load i32, i32* %7, align 4
  %47 = load i32, i32* %3, align 4
  %48 = icmp sle i32 %46, %47
  br i1 %48, label %49, label %73

49:                                               ; preds = %45
  store i32 1, i32* %8, align 4
  br label %50

50:                                               ; preds = %66, %49
  %51 = load i32, i32* %8, align 4
  %52 = load i32, i32* %7, align 4
  %53 = icmp sle i32 %51, %52
  br i1 %53, label %54, label %69

54:                                               ; preds = %50
  %55 = load i32, i32* %8, align 4
  %56 = sext i32 %55 to i64
  %57 = getelementptr inbounds [100 x [100 x i32]], [100 x [100 x i32]]* %4, i64 0, i64 %56
  %58 = load i32, i32* %7, align 4
  %59 = add nsw i32 %58, 1
  %60 = load i32, i32* %8, align 4
  %61 = sub nsw i32 %59, %60
  %62 = sext i32 %61 to i64
  %63 = getelementptr inbounds [100 x i32], [100 x i32]* %57, i64 0, i64 %62
  %64 = load i32, i32* %63, align 4
  %65 = call i32 (i8*, ...) @printf(i8* getelementptr inbounds ([4 x i8], [4 x i8]* @.str.2, i64 0, i64 0), i32 %64)
  br label %66

66:                                               ; preds = %54
  %67 = load i32, i32* %8, align 4
  %68 = add nsw i32 %67, 1
  store i32 %68, i32* %8, align 4
  br label %50

69:                                               ; preds = %50
  br label %70

70:                                               ; preds = %69
  %71 = load i32, i32* %7, align 4
  %72 = add nsw i32 %71, 1
  store i32 %72, i32* %7, align 4
  br label %45

73:                                               ; preds = %45
  store i32 2, i32* %9, align 4
  br label %74

74:                                               ; preds = %111, %73
  %75 = load i32, i32* %9, align 4
  %76 = load i32, i32* %2, align 4
  %77 = icmp sle i32 %75, %76
  br i1 %77, label %78, label %114

78:                                               ; preds = %74
  store i32 1, i32* %10, align 4
  br label %79

79:                                               ; preds = %107, %78
  %80 = load i32, i32* %10, align 4
  %81 = load i32, i32* %3, align 4
  %82 = icmp sle i32 %80, %81
  br i1 %82, label %83, label %90

83:                                               ; preds = %79
  %84 = load i32, i32* %9, align 4
  %85 = sub nsw i32 %84, 1
  %86 = load i32, i32* %10, align 4
  %87 = add nsw i32 %85, %86
  %88 = load i32, i32* %2, align 4
  %89 = icmp sle i32 %87, %88
  br label %90

90:                                               ; preds = %83, %79
  %91 = phi i1 [ false, %79 ], [ %89, %83 ]
  br i1 %91, label %92, label %110

92:                                               ; preds = %90
  %93 = load i32, i32* %9, align 4
  %94 = sub nsw i32 %93, 1
  %95 = load i32, i32* %10, align 4
  %96 = add nsw i32 %94, %95
  %97 = sext i32 %96 to i64
  %98 = getelementptr inbounds [100 x [100 x i32]], [100 x [100 x i32]]* %4, i64 0, i64 %97
  %99 = load i32, i32* %3, align 4
  %100 = add nsw i32 %99, 1
  %101 = load i32, i32* %10, align 4
  %102 = sub nsw i32 %100, %101
  %103 = sext i32 %102 to i64
  %104 = getelementptr inbounds [100 x i32], [100 x i32]* %98, i64 0, i64 %103
  %105 = load i32, i32* %104, align 4
  %106 = call i32 (i8*, ...) @printf(i8* getelementptr inbounds ([4 x i8], [4 x i8]* @.str.2, i64 0, i64 0), i32 %105)
  br label %107

107:                                              ; preds = %92
  %108 = load i32, i32* %10, align 4
  %109 = add nsw i32 %108, 1
  store i32 %109, i32* %10, align 4
  br label %79

110:                                              ; preds = %90
  br label %111

111:                                              ; preds = %110
  %112 = load i32, i32* %9, align 4
  %113 = add nsw i32 %112, 1
  store i32 %113, i32* %9, align 4
  br label %74

114:                                              ; preds = %74
  br label %188

115:                                              ; preds = %40
  store i32 1, i32* %11, align 4
  br label %116

116:                                              ; preds = %149, %115
  %117 = load i32, i32* %11, align 4
  %118 = load i32, i32* %3, align 4
  %119 = icmp sle i32 %117, %118
  br i1 %119, label %120, label %152

120:                                              ; preds = %116
  store i32 1, i32* %12, align 4
  br label %121

121:                                              ; preds = %145, %120
  %122 = load i32, i32* %12, align 4
  %123 = load i32, i32* %2, align 4
  %124 = icmp sle i32 %122, %123
  br i1 %124, label %125, label %131

125:                                              ; preds = %121
  %126 = load i32, i32* %11, align 4
  %127 = add nsw i32 %126, 1
  %128 = load i32, i32* %12, align 4
  %129 = sub nsw i32 %127, %128
  %130 = icmp sgt i32 %129, 0
  br label %131

131:                                              ; preds = %125, %121
  %132 = phi i1 [ false, %121 ], [ %130, %125 ]
  br i1 %132, label %133, label %148

133:                                              ; preds = %131
  %134 = load i32, i32* %12, align 4
  %135 = sext i32 %134 to i64
  %136 = getelementptr inbounds [100 x [100 x i32]], [100 x [100 x i32]]* %4, i64 0, i64 %135
  %137 = load i32, i32* %11, align 4
  %138 = add nsw i32 %137, 1
  %139 = load i32, i32* %12, align 4
  %140 = sub nsw i32 %138, %139
  %141 = sext i32 %140 to i64
  %142 = getelementptr inbounds [100 x i32], [100 x i32]* %136, i64 0, i64 %141
  %143 = load i32, i32* %142, align 4
  %144 = call i32 (i8*, ...) @printf(i8* getelementptr inbounds ([4 x i8], [4 x i8]* @.str.2, i64 0, i64 0), i32 %143)
  br label %145

145:                                              ; preds = %133
  %146 = load i32, i32* %12, align 4
  %147 = add nsw i32 %146, 1
  store i32 %147, i32* %12, align 4
  br label %121

148:                                              ; preds = %131
  br label %149

149:                                              ; preds = %148
  %150 = load i32, i32* %11, align 4
  %151 = add nsw i32 %150, 1
  store i32 %151, i32* %11, align 4
  br label %116

152:                                              ; preds = %116
  store i32 2, i32* %13, align 4
  br label %153

153:                                              ; preds = %184, %152
  %154 = load i32, i32* %13, align 4
  %155 = load i32, i32* %2, align 4
  %156 = icmp sle i32 %154, %155
  br i1 %156, label %157, label %187

157:                                              ; preds = %153
  store i32 1, i32* %14, align 4
  br label %158

158:                                              ; preds = %180, %157
  %159 = load i32, i32* %14, align 4
  %160 = load i32, i32* %2, align 4
  %161 = add nsw i32 %160, 1
  %162 = load i32, i32* %13, align 4
  %163 = sub nsw i32 %161, %162
  %164 = icmp sle i32 %159, %163
  br i1 %164, label %165, label %183

165:                                              ; preds = %158
  %166 = load i32, i32* %13, align 4
  %167 = sub nsw i32 %166, 1
  %168 = load i32, i32* %14, align 4
  %169 = add nsw i32 %167, %168
  %170 = sext i32 %169 to i64
  %171 = getelementptr inbounds [100 x [100 x i32]], [100 x [100 x i32]]* %4, i64 0, i64 %170
  %172 = load i32, i32* %3, align 4
  %173 = add nsw i32 %172, 1
  %174 = load i32, i32* %14, align 4
  %175 = sub nsw i32 %173, %174
  %176 = sext i32 %175 to i64
  %177 = getelementptr inbounds [100 x i32], [100 x i32]* %171, i64 0, i64 %176
  %178 = load i32, i32* %177, align 4
  %179 = call i32 (i8*, ...) @printf(i8* getelementptr inbounds ([4 x i8], [4 x i8]* @.str.2, i64 0, i64 0), i32 %178)
  br label %180

180:                                              ; preds = %165
  %181 = load i32, i32* %14, align 4
  %182 = add nsw i32 %181, 1
  store i32 %182, i32* %14, align 4
  br label %158

183:                                              ; preds = %158
  br label %184

184:                                              ; preds = %183
  %185 = load i32, i32* %13, align 4
  %186 = add nsw i32 %185, 1
  store i32 %186, i32* %13, align 4
  br label %153

187:                                              ; preds = %153
  br label %188

188:                                              ; preds = %187, %114
  ret i32 0
}

declare dso_local i32 @__isoc99_scanf(i8*, ...) #1

declare dso_local i32 @printf(i8*, ...) #1


!llvm.module.flags = !{!0}
!llvm.ident = !{!1}

!0 = !{i32 1, !"wchar_size", i32 4}
!1 = !{!"clang version 10.0.0-4ubuntu1 "}
